(lp1
S'Mystery'
p2
aS'Drama'
p3
aS'Sci-Fi'
p4
aS'Fantasy'
p5
aS'Horror'
p6
aS'Film-Noir'
p7
aS'Crime'
p8
aS'Romance'
p9
aS"Children's"
p10
aS'Animation'
p11
aS'War'
p12
aS'Western'
p13
aS'Action'
p14
aS'Comedy'
p15
aS'Documentary'
p16
aS'Musical'
p17
aS'Thriller'
p18
aS'Adventure'
p19
a.